; Function Attrs: nounwind uwtable
define noalias nonnull ptr @l_Lake_instEmptyCollectionLeanExeConfig(ptr noundef %0) local_unnamed_addr #1 {
  %2 = load ptr, ptr @l_Lake_LeanExeConfig_exeName___proj___elambda__1___closed__1, align 8, !tbaa !4
  %3 = load ptr, ptr @l_Lake_LeanExeConfig_exeName___proj___elambda__1___closed__2, align 8, !tbaa !4
  %4 = ptrtoint ptr %0 to i64
  %5 = and i64 %4, 1
  %.not = icmp eq i64 %5, 0
  br i1 %.not, label %6, label %lean_inc.exit

6:                                                ; preds = %1
  %.val.i = load i32, ptr %0, align 4, !tbaa !10
  %7 = icmp sgt i32 %.val.i, 0
  br i1 %7, label %8, label %10, !prof !13

8:                                                ; preds = %6
  %9 = add nuw i32 %.val.i, 1
  store i32 %9, ptr %0, align 4, !tbaa !10
  br label %lean_inc.exit

10:                                               ; preds = %6
  %.not.i = icmp eq i32 %.val.i, 0
  br i1 %.not.i, label %lean_inc.exit, label %11

11:                                               ; preds = %10
  tail call void @lean_inc_ref_cold(ptr noundef nonnull %0) #7
  br label %lean_inc.exit

lean_inc.exit:                                    ; preds = %11, %10, %8, %1
  %12 = tail call ptr @l_Lean_Name_toStringWithSep(ptr noundef %2, i8 noundef zeroext 0, ptr noundef %0, ptr noundef %3) #7
  tail call void @lean_inc_heartbeat() #7
  %13 = tail call noalias ptr @mi_malloc_small(i64 noundef 32) #7
  %14 = icmp eq ptr %13, null
  br i1 %14, label %15, label %lean_alloc_closure.exit

15:                                               ; preds = %lean_inc.exit
  tail call void @lean_internal_panic_out_of_memory() #8
  unreachable

lean_alloc_closure.exit:                          ; preds = %lean_inc.exit
  %16 = getelementptr inbounds nuw i8, ptr %13, i64 4
  store i32 1, ptr %13, align 4, !tbaa !10
  store i32 -184549344, ptr %16, align 4
  %17 = getelementptr inbounds nuw i8, ptr %13, i64 8
  store ptr @l_Lake_instEmptyCollectionLeanExeConfig___lambda__1___boxed, ptr %17, align 8, !tbaa !4
  %18 = getelementptr inbounds nuw i8, ptr %13, i64 16
  store i16 2, ptr %18, align 8, !tbaa !15
  %19 = getelementptr inbounds nuw i8, ptr %13, i64 18
  store i16 1, ptr %19, align 2, !tbaa !15
  %20 = getelementptr inbounds nuw i8, ptr %13, i64 24
  store ptr inttoptr (i64 1 to ptr), ptr %20, align 8, !tbaa !4
  %21 = load ptr, ptr @l_Lake_LeanExeConfig_toLeanConfig___proj___elambda__1___closed__1, align 8, !tbaa !4
  %22 = load ptr, ptr @l_Lake_LeanExeConfig_srcDir___proj___elambda__1___closed__1, align 8, !tbaa !4
  %23 = load ptr, ptr @l_Lake_LeanExeConfig_needs___proj___elambda__1___closed__1, align 8, !tbaa !4
  tail call void @lean_inc_heartbeat() #7
  %24 = tail call noalias ptr @mi_malloc_small(i64 noundef 72) #7
  %25 = icmp eq ptr %24, null
  br i1 %25, label %26, label %lean_alloc_ctor.exit

26:                                               ; preds = %lean_alloc_closure.exit
  tail call void @lean_internal_panic_out_of_memory() #8
  unreachable

lean_alloc_ctor.exit:                             ; preds = %lean_alloc_closure.exit
  %27 = getelementptr inbounds nuw i8, ptr %24, i64 4
  %28 = getelementptr inbounds nuw i8, ptr %24, i64 64
  store i64 0, ptr %28, align 8, !tbaa !8
  store i32 1, ptr %24, align 4, !tbaa !10
  store i32 458824, ptr %27, align 4
  %29 = getelementptr inbounds nuw i8, ptr %24, i64 8
  store ptr %21, ptr %29, align 8, !tbaa !4
  %30 = getelementptr inbounds nuw i8, ptr %24, i64 16
  store ptr %22, ptr %30, align 8, !tbaa !4
  %31 = getelementptr inbounds nuw i8, ptr %24, i64 24
  store ptr %0, ptr %31, align 8, !tbaa !4
  %32 = getelementptr inbounds nuw i8, ptr %24, i64 32
  store ptr %12, ptr %32, align 8, !tbaa !4
  %33 = getelementptr inbounds nuw i8, ptr %24, i64 40
  store ptr %23, ptr %33, align 8, !tbaa !4
  %34 = getelementptr inbounds nuw i8, ptr %24, i64 48
  store ptr %23, ptr %34, align 8, !tbaa !4
  %35 = getelementptr inbounds nuw i8, ptr %24, i64 56
  store ptr %13, ptr %35, align 8, !tbaa !4
  ret ptr %24
}